target datalayout = "e-m:e-p270:32:32-p271:32:32-p272:64:64-i64:64-i128:128-f80:128-n8:16:32:64-S128"
target triple = "x86_64-pc-linux-gnu"

%struct.ldap_conv_info_t = type { i32, ptr, i32, ptr, ptr, i8, i32, i8, i32 }
%struct.nstime_t = type { i64, i32 }
%struct._packet_info = type { ptr, ptr, i32, i32, %struct.nstime_t, %struct.nstime_t, %struct.nstime_t, i8, ptr, ptr, ptr, ptr, %struct._address, %struct._address, %struct._address, %struct._address, %struct._address, %struct._address, i32, ptr, i8, [3 x i8], %struct.anon.1, i32, i32, i32, i32, ptr, i8, ptr, ptr, i16, i16, i32, i32, i16, i32, i32, ptr, ptr, ptr, i8, i8, i16, i16, i16, i32, i16, i16, ptr, ptr, ptr, ptr, ptr, i32, i32 }
%struct._address = type { i32, i32, ptr, ptr }
%struct.anon.1 = type { i8, [3 x i8] }
%struct._asn1_ctx_t = type { i32, i32, i8, ptr, ptr, ptr, ptr, ptr, %struct.anon.2, %struct.anon.5, %struct.anon.6, ptr }
%struct.anon.2 = type { i32, i8, i8, i8, ptr, ptr, i32, i32, ptr, ptr, ptr, %union.anon }
%union.anon = type { %struct.anon.3 }
%struct.anon.3 = type { ptr }
%struct.anon.5 = type { ptr, ptr, ptr }
%struct.anon.6 = type { i32, i8, ptr, i32, i32, ptr, ptr, ptr, %union.anon.7 }
%union.anon.7 = type { %struct.anon.8 }
%struct.anon.8 = type { ptr }

@gssapi_handle = internal global ptr null, align 8
@spnego_handle = internal global ptr null, align 8
@ntlmssp_handle = internal global ptr null, align 8
@.str.853 = private unnamed_addr constant [11 x i8] c"GSS-SPNEGO\00", align 1
@.str.856 = private unnamed_addr constant [7 x i8] c"GSSAPI\00", align 1
@.str.884 = private unnamed_addr constant [8 x i8] c"NTLMSSP\00", align 1

; Function Attrs: null_pointer_is_valid sspstrong uwtable
define internal i32 @dissect_ldap_ServerSaslCreds(i1 noundef zeroext %0, ptr noundef %1, i32 noundef %2, ptr noundef %3, ptr noundef %4, i32 noundef %5) #0 {
  %7 = alloca i32, align 4
  %8 = alloca i8, align 1
  %9 = alloca ptr, align 8
  %10 = alloca i32, align 4
  %11 = alloca ptr, align 8
  %12 = alloca ptr, align 8
  %13 = alloca i32, align 4
  %14 = alloca ptr, align 8
  %15 = alloca ptr, align 8
  %16 = alloca i32, align 4
  %17 = zext i1 %0 to i8
  store i8 %17, ptr %8, align 1
  store ptr %1, ptr %9, align 8
  store i32 %2, ptr %10, align 4
  store ptr %3, ptr %11, align 8
  store ptr %4, ptr %12, align 8
  store i32 %5, ptr %13, align 4
  call void @llvm.lifetime.start.p0(i64 8, ptr %14) #16
  store ptr null, ptr %14, align 8
  call void @llvm.lifetime.start.p0(i64 8, ptr %15) #16
  %18 = load i8, ptr %8, align 1, !range !6, !noundef !7
  %19 = trunc i8 %18 to i1
  %20 = load ptr, ptr %11, align 8
  %21 = load ptr, ptr %12, align 8
  %22 = load ptr, ptr %9, align 8
  %23 = load i32, ptr %10, align 4
  %24 = load i32, ptr %13, align 4
  %25 = call i32 @dissect_ber_octet_string(i1 noundef zeroext %19, ptr noundef %20, ptr noundef %21, ptr noundef %22, i32 noundef %23, i32 noundef %24, ptr noundef %14)
  store i32 %25, ptr %10, align 4
  %26 = load ptr, ptr %14, align 8
  %27 = icmp ne ptr %26, null
  br i1 %27, label %30, label %28

28:                                               ; preds = %6
  %29 = load i32, ptr %10, align 4
  store i32 %29, ptr %7, align 4
  store i32 1, ptr %16, align 4
  br label %122

30:                                               ; preds = %6
  %31 = load ptr, ptr %11, align 8
  %32 = getelementptr inbounds nuw %struct._asn1_ctx_t, ptr %31, i32 0, i32 7
  %33 = load ptr, ptr %32, align 8
  store ptr %33, ptr %15, align 8
  %34 = load ptr, ptr %15, align 8
  %35 = getelementptr inbounds nuw %struct.ldap_conv_info_t, ptr %34, i32 0, i32 0
  %36 = load i32, ptr %35, align 8
  switch i32 %36, label %117 [
    i32 3, label %37
  ]

37:                                               ; preds = %30
  %38 = load ptr, ptr %11, align 8
  %39 = getelementptr inbounds nuw %struct._asn1_ctx_t, ptr %38, i32 0, i32 3
  %40 = load ptr, ptr %39, align 8
  %41 = getelementptr inbounds nuw %struct._packet_info, ptr %40, i32 0, i32 3
  %42 = load i32, ptr %41, align 4
  %43 = add i32 %42, 1
  %44 = load ptr, ptr %15, align 8
  %45 = getelementptr inbounds nuw %struct.ldap_conv_info_t, ptr %44, i32 0, i32 2
  store i32 %43, ptr %45, align 8
  %46 = load ptr, ptr %15, align 8
  %47 = getelementptr inbounds nuw %struct.ldap_conv_info_t, ptr %46, i32 0, i32 1
  %48 = load ptr, ptr %47, align 8
  %49 = icmp ne ptr %48, null
  br i1 %49, label %50, label %88

50:                                               ; preds = %37
  %51 = load ptr, ptr %15, align 8
  %52 = getelementptr inbounds nuw %struct.ldap_conv_info_t, ptr %51, i32 0, i32 1
  %53 = load ptr, ptr %52, align 8
  %54 = call i32 @strcmp(ptr noundef %53, ptr noundef @.str.853) #17
  %55 = icmp eq i32 %54, 0
  br i1 %55, label %56, label %88

56:                                               ; preds = %50
  %57 = load ptr, ptr %14, align 8
  %58 = call i32 @tvb_reported_length(ptr noundef %57)
  %59 = icmp uge i32 %58, 7
  br i1 %59, label %60, label %72

60:                                               ; preds = %56
  %61 = load ptr, ptr %14, align 8
  %62 = call i32 @tvb_memeql(ptr noundef %61, i32 noundef 0, ptr noundef @.str.884, i64 noundef 7)
  %63 = icmp ne i32 %62, 0
  br i1 %63, label %72, label %64

64:                                               ; preds = %60
  %65 = load ptr, ptr @ntlmssp_handle, align 8
  %66 = load ptr, ptr %14, align 8
  %67 = load ptr, ptr %11, align 8
  %68 = getelementptr inbounds nuw %struct._asn1_ctx_t, ptr %67, i32 0, i32 3
  %69 = load ptr, ptr %68, align 8
  %70 = load ptr, ptr %12, align 8
  %71 = call i32 @call_dissector(ptr noundef %65, ptr noundef %66, ptr noundef %69, ptr noundef %70)
  br label %117

72:                                               ; preds = %60, %56
  %73 = load ptr, ptr %14, align 8
  %74 = icmp ne ptr %73, null
  br i1 %74, label %75, label %87

75:                                               ; preds = %72
  %76 = load ptr, ptr %14, align 8
  %77 = call i32 @tvb_reported_length(ptr noundef %76)
  %78 = icmp ugt i32 %77, 0
  br i1 %78, label %79, label %87

79:                                               ; preds = %75
  %80 = load ptr, ptr @spnego_handle, align 8
  %81 = load ptr, ptr %14, align 8
  %82 = load ptr, ptr %11, align 8
  %83 = getelementptr inbounds nuw %struct._asn1_ctx_t, ptr %82, i32 0, i32 3
  %84 = load ptr, ptr %83, align 8
  %85 = load ptr, ptr %12, align 8
  %86 = call i32 @call_dissector(ptr noundef %80, ptr noundef %81, ptr noundef %84, ptr noundef %85)
  br label %87

87:                                               ; preds = %79, %75, %72
  br label %116

88:                                               ; preds = %50, %37
  %89 = load ptr, ptr %15, align 8
  %90 = getelementptr inbounds nuw %struct.ldap_conv_info_t, ptr %89, i32 0, i32 1
  %91 = load ptr, ptr %90, align 8
  %92 = icmp ne ptr %91, null
  br i1 %92, label %93, label %115

93:                                               ; preds = %88
  %94 = load ptr, ptr %15, align 8
  %95 = getelementptr inbounds nuw %struct.ldap_conv_info_t, ptr %94, i32 0, i32 1
  %96 = load ptr, ptr %95, align 8
  %97 = call i32 @strcmp(ptr noundef %96, ptr noundef @.str.856) #17
  %98 = icmp eq i32 %97, 0
  br i1 %98, label %99, label %115

99:                                               ; preds = %93
  %100 = load ptr, ptr %14, align 8
  %101 = icmp ne ptr %100, null
  br i1 %101, label %102, label %114

102:                                              ; preds = %99
  %103 = load ptr, ptr %14, align 8
  %104 = call i32 @tvb_reported_length(ptr noundef %103)
  %105 = icmp ugt i32 %104, 0
  br i1 %105, label %106, label %114

106:                                              ; preds = %102
  %107 = load ptr, ptr @gssapi_handle, align 8
  %108 = load ptr, ptr %14, align 8
  %109 = load ptr, ptr %11, align 8
  %110 = getelementptr inbounds nuw %struct._asn1_ctx_t, ptr %109, i32 0, i32 3
  %111 = load ptr, ptr %110, align 8
  %112 = load ptr, ptr %12, align 8
  %113 = call i32 @call_dissector(ptr noundef %107, ptr noundef %108, ptr noundef %111, ptr noundef %112)
  br label %114

114:                                              ; preds = %106, %102, %99
  br label %115

115:                                              ; preds = %114, %93, %88
  br label %116

116:                                              ; preds = %115, %87
  br label %117

117:                                              ; preds = %30, %116, %64
  %118 = load ptr, ptr %15, align 8
  %119 = load ptr, ptr %11, align 8
  %120 = getelementptr inbounds nuw %struct._asn1_ctx_t, ptr %119, i32 0, i32 7
  store ptr %118, ptr %120, align 8
  %121 = load i32, ptr %10, align 4
  store i32 %121, ptr %7, align 4
  store i32 1, ptr %16, align 4
  br label %122

122:                                              ; preds = %117, %28
  call void @llvm.lifetime.end.p0(i64 8, ptr %15) #16
  call void @llvm.lifetime.end.p0(i64 8, ptr %14) #16
  %123 = load i32, ptr %7, align 4
  ret i32 %123
}