; Function Attrs: null_pointer_is_valid sspstrong uwtable
define internal i32 @dissect_ldap_ServerSaslCreds(i1 noundef zeroext %0, ptr noundef %1, i32 noundef %2, ptr noundef %3, ptr noundef %4, i32 noundef %5) #0 {
  %7 = alloca ptr, align 8
  call void @llvm.lifetime.start.p0(i64 8, ptr nonnull %7) #14
  store ptr null, ptr %7, align 8
  %8 = call i32 @dissect_ber_octet_string(i1 noundef zeroext %0, ptr noundef %3, ptr noundef %4, ptr noundef %1, i32 noundef %2, i32 noundef %5, ptr noundef nonnull %7)
  %9 = load ptr, ptr %7, align 8
  %.not = icmp eq ptr %9, null
  br i1 %.not, label %45, label %10

10:                                               ; preds = %6
  %11 = getelementptr inbounds nuw i8, ptr %3, i64 48
  %12 = load ptr, ptr %11, align 8
  %13 = load i32, ptr %12, align 8
  %cond = icmp eq i32 %13, 3
  br i1 %cond, label %14, label %.thread

14:                                               ; preds = %10
  %15 = getelementptr inbounds nuw i8, ptr %3, i64 16
  %16 = load ptr, ptr %15, align 8
  %17 = getelementptr inbounds nuw i8, ptr %16, i64 20
  %18 = load i32, ptr %17, align 4
  %19 = add i32 %18, 1
  %20 = getelementptr inbounds nuw i8, ptr %12, i64 16
  store i32 %19, ptr %20, align 8
  %21 = getelementptr inbounds nuw i8, ptr %12, i64 8
  %22 = load ptr, ptr %21, align 8
  %.not28 = icmp eq ptr %22, null
  br i1 %.not28, label %.thread, label %23

23:                                               ; preds = %14
  %24 = call i32 @strcmp(ptr noundef nonnull dereferenceable(1) %22, ptr noundef nonnull dereferenceable(11) @.str.853) #15
  %25 = icmp eq i32 %24, 0
  br i1 %25, label %26, label %36

26:                                               ; preds = %23
  %27 = call i32 @tvb_reported_length(ptr noundef nonnull %9)
  %28 = icmp ugt i32 %27, 6
  br i1 %28, label %29, label %32

29:                                               ; preds = %26
  %30 = load ptr, ptr %7, align 8
  %31 = call i32 @tvb_memeql(ptr noundef %30, i32 noundef 0, ptr noundef nonnull @.str.884, i64 noundef 7)
  %.not31 = icmp eq i32 %31, 0
  br i1 %.not31, label %.thread.sink.split, label %32

32:                                               ; preds = %29, %26
  %33 = load ptr, ptr %7, align 8
  %.not32 = icmp eq ptr %33, null
  br i1 %.not32, label %.thread, label %34

34:                                               ; preds = %32
  %35 = call i32 @tvb_reported_length(ptr noundef nonnull %33)
  %.not33 = icmp eq i32 %35, 0
  br i1 %.not33, label %.thread, label %.thread.sink.split

36:                                               ; preds = %23
  %37 = call i32 @strcmp(ptr noundef nonnull dereferenceable(1) %22, ptr noundef nonnull dereferenceable(7) @.str.856) #15
  %38 = icmp eq i32 %37, 0
  br i1 %38, label %39, label %.thread

39:                                               ; preds = %36
  %40 = call i32 @tvb_reported_length(ptr noundef nonnull %9)
  %.not30 = icmp eq i32 %40, 0
  br i1 %.not30, label %.thread, label %.thread.sink.split

.thread.sink.split:                               ; preds = %39, %34, %29
  %spnego_handle.sink = phi ptr [ @ntlmssp_handle, %29 ], [ @spnego_handle, %34 ], [ @gssapi_handle, %39 ]
  %41 = load ptr, ptr %spnego_handle.sink, align 8
  %42 = load ptr, ptr %7, align 8
  %43 = load ptr, ptr %15, align 8
  %44 = call i32 @call_dissector(ptr noundef %41, ptr noundef %42, ptr noundef %43, ptr noundef %4)
  br label %.thread

.thread:                                          ; preds = %.thread.sink.split, %14, %34, %32, %39, %36, %10
  store ptr %12, ptr %11, align 8
  br label %45

45:                                               ; preds = %6, %.thread
  call void @llvm.lifetime.end.p0(i64 8, ptr nonnull %7) #14
  ret i32 %8
}